target datalayout = "e-m:e-p270:32:32-p271:32:32-p272:64:64-i64:64-i128:128-f80:128-n8:16:32:64-S128"
target triple = "x86_64-pc-linux-gnu"

%struct.H5O_obj_create_t = type { i32, ptr, ptr }
%struct.H5G_obj_create_t = type { i64, i32, %union.H5G_cache_t }
%union.H5G_cache_t = type { %struct.anon }
%struct.anon = type { i64, i64 }

@.str.3 = private unnamed_addr constant [100 x i8] c"generated/home/dtcxzyw/WorkSpace/Projects/compilers/llvm-opt-benchmark/bench/hdf5/hdf5/src/H5Gint.c\00", align 1
@H5E_SYM_g = external global i64, align 8
@H5E_CANTINIT_g = external global i64, align 8
@__func__.H5G__create_named = private unnamed_addr constant [18 x i8] c"H5G__create_named\00", align 1
@.str.5 = private unnamed_addr constant [35 x i8] c"unable to create and link to group\00", align 1

; Function Attrs: nounwind uwtable
define ptr @H5G__create_named(ptr noundef %0, ptr noundef %1, i64 noundef %2, i64 noundef %3) #0 {
  %5 = alloca ptr, align 8
  %6 = alloca ptr, align 8
  %7 = alloca i64, align 8
  %8 = alloca i64, align 8
  %9 = alloca %struct.H5O_obj_create_t, align 8
  %10 = alloca %struct.H5G_obj_create_t, align 8
  %11 = alloca ptr, align 8
  %12 = alloca i8, align 1
  store ptr %0, ptr %5, align 8
  store ptr %1, ptr %6, align 8
  store i64 %2, ptr %7, align 8
  store i64 %3, ptr %8, align 8
  store ptr null, ptr %11, align 8
  store i8 0, ptr %12, align 1
  %13 = load i64, ptr %8, align 8
  %14 = getelementptr inbounds %struct.H5G_obj_create_t, ptr %10, i32 0, i32 0
  store i64 %13, ptr %14, align 8
  %15 = getelementptr inbounds %struct.H5G_obj_create_t, ptr %10, i32 0, i32 1
  store i32 0, ptr %15, align 8
  %16 = getelementptr inbounds %struct.H5G_obj_create_t, ptr %10, i32 0, i32 2
  call void @llvm.memset.p0.i64(ptr align 8 %16, i8 0, i64 16, i1 false)
  %17 = getelementptr inbounds %struct.H5O_obj_create_t, ptr %9, i32 0, i32 0
  store i32 0, ptr %17, align 8
  %18 = getelementptr inbounds %struct.H5O_obj_create_t, ptr %9, i32 0, i32 1
  store ptr %10, ptr %18, align 8
  %19 = getelementptr inbounds %struct.H5O_obj_create_t, ptr %9, i32 0, i32 2
  store ptr null, ptr %19, align 8
  %20 = load ptr, ptr %5, align 8
  %21 = load ptr, ptr %6, align 8
  %22 = load i64, ptr %7, align 8
  %23 = call i32 @H5L_link_object(ptr noundef %20, ptr noundef %21, ptr noundef %9, i64 noundef %22)
  %24 = icmp slt i32 %23, 0
  br i1 %24, label %25, label %40

25:                                               ; preds = %4
  br label %26

26:                                               ; preds = %25
  br label %27

27:                                               ; preds = %26
  br label %28

28:                                               ; preds = %27
  %29 = load i64, ptr @H5E_SYM_g, align 8
  %30 = load i64, ptr @H5E_CANTINIT_g, align 8
  %31 = call i32 (ptr, ptr, i32, i64, i64, ptr, ...) @H5E_printf_stack(ptr noundef @.str.3, ptr noundef @__func__.H5G__create_named, i32 noundef 264, i64 noundef %29, i64 noundef %30, ptr noundef @.str.5)
  br label %32

32:                                               ; preds = %28
  store i8 1, ptr %12, align 1
  %33 = load i8, ptr %12, align 1
  %34 = trunc i8 %33 to i1
  %35 = zext i1 %34 to i8
  store i8 %35, ptr %12, align 1
  br label %36

36:                                               ; preds = %32
  br label %37

37:                                               ; preds = %36
  store ptr null, ptr %11, align 8
  br label %43

38:                                               ; No predecessors!
  br label %39

39:                                               ; preds = %38
  br label %40

40:                                               ; preds = %39, %4
  %41 = getelementptr inbounds %struct.H5O_obj_create_t, ptr %9, i32 0, i32 2
  %42 = load ptr, ptr %41, align 8
  store ptr %42, ptr %11, align 8
  br label %43

43:                                               ; preds = %40, %37
  %44 = load ptr, ptr %11, align 8
  ret ptr %44
}