; Function Attrs: nounwind uwtable
define ptr @H5G__create_named(ptr noundef %0, ptr noundef %1, i64 noundef %2, i64 noundef %3) local_unnamed_addr #0 {
  %5 = alloca %struct.H5O_obj_create_t, align 8
  %6 = alloca %struct.H5G_obj_create_t, align 8
  store i64 %3, ptr %6, align 8
  %7 = getelementptr inbounds i8, ptr %6, i64 8
  store i32 0, ptr %7, align 8
  %8 = getelementptr inbounds i8, ptr %6, i64 16
  call void @llvm.memset.p0.i64(ptr noundef nonnull align 8 dereferenceable(16) %8, i8 0, i64 16, i1 false)
  store i32 0, ptr %5, align 8
  %9 = getelementptr inbounds i8, ptr %5, i64 8
  store ptr %6, ptr %9, align 8
  %10 = getelementptr inbounds i8, ptr %5, i64 16
  store ptr null, ptr %10, align 8
  %11 = call i32 @H5L_link_object(ptr noundef %0, ptr noundef %1, ptr noundef nonnull %5, i64 noundef %2) #10
  %12 = icmp slt i32 %11, 0
  br i1 %12, label %13, label %17

13:                                               ; preds = %4
  %14 = load i64, ptr @H5E_SYM_g, align 8
  %15 = load i64, ptr @H5E_CANTINIT_g, align 8
  %16 = call i32 (ptr, ptr, i32, i64, i64, ptr, ...) @H5E_printf_stack(ptr noundef nonnull @.str.3, ptr noundef nonnull @__func__.H5G__create_named, i32 noundef 264, i64 noundef %14, i64 noundef %15, ptr noundef nonnull @.str.5) #10
  br label %19

17:                                               ; preds = %4
  %18 = load ptr, ptr %10, align 8
  br label %19

19:                                               ; preds = %17, %13
  %.0 = phi ptr [ null, %13 ], [ %18, %17 ]
  ret ptr %.0
}